; Function Attrs: nounwind uwtable
define i64 @ZSTDv07_decompress_usingDDict(ptr noundef initializes((0, 21766)) %0, ptr noundef %1, i64 noundef %2, ptr noundef %3, i64 noundef %4, ptr noundef readonly captures(none) %5) local_unnamed_addr #1 {
  %7 = getelementptr inbounds nuw i8, ptr %5, i64 16
  %8 = load ptr, ptr %7, align 8, !tbaa !108
  tail call void @llvm.memcpy.p0.p0.i64(ptr noundef nonnull align 8 dereferenceable(21766) %0, ptr noundef nonnull readonly align 8 dereferenceable(21766) %8, i64 21766, i1 false)
  %9 = getelementptr inbounds nuw i8, ptr %0, i64 21520
  %10 = load ptr, ptr %9, align 8, !tbaa !81
  %.not.i.i = icmp eq ptr %1, %10
  br i1 %.not.i.i, label %ZSTDv07_decompress_usingPreparedDCtx.exit, label %11

11:                                               ; preds = %6
  %12 = getelementptr inbounds nuw i8, ptr %0, i64 21544
  store ptr %10, ptr %12, align 8, !tbaa !82
  %13 = getelementptr inbounds nuw i8, ptr %0, i64 21528
  %14 = load ptr, ptr %13, align 8, !tbaa !83
  %15 = ptrtoint ptr %10 to i64
  %16 = ptrtoint ptr %14 to i64
  %.neg.i.i = sub i64 %16, %15
  %17 = getelementptr inbounds i8, ptr %1, i64 %.neg.i.i
  %18 = getelementptr inbounds nuw i8, ptr %0, i64 21536
  store ptr %17, ptr %18, align 8, !tbaa !84
  store ptr %1, ptr %13, align 8, !tbaa !83
  store ptr %1, ptr %9, align 8, !tbaa !81
  br label %ZSTDv07_decompress_usingPreparedDCtx.exit

ZSTDv07_decompress_usingPreparedDCtx.exit:        ; preds = %6, %11
  %19 = tail call fastcc i64 @ZSTDv07_decompressFrame(ptr noundef nonnull %0, ptr noundef %1, i64 noundef %2, ptr noundef %3, i64 noundef %4)
  ret i64 %19
}